target datalayout = "e-m:e-p270:32:32-p271:32:32-p272:64:64-i64:64-i128:128-f80:128-n8:16:32:64-S128"
target triple = "x86_64-pc-linux-gnu"

; Function Attrs: nounwind uwtable
define dso_local i32 @_Py_IsValidFD(i32 noundef %0) #0 {
  %2 = alloca i32, align 4
  %3 = alloca i32, align 4
  store i32 %0, ptr %3, align 4, !tbaa !4
  %4 = load i32, ptr %3, align 4, !tbaa !4
  %5 = icmp slt i32 %4, 0
  br i1 %5, label %6, label %7

6:                                                ; preds = %1
  store i32 0, ptr %2, align 4
  br label %12

7:                                                ; preds = %1
  %8 = load i32, ptr %3, align 4, !tbaa !4
  %9 = call i32 (i32, i32, ...) @fcntl64(i32 noundef %8, i32 noundef 1)
  %10 = icmp sge i32 %9, 0
  %11 = zext i1 %10 to i32
  store i32 %11, ptr %2, align 4
  br label %12

12:                                               ; preds = %7, %6
  %13 = load i32, ptr %2, align 4
  ret i32 %13
}