; Function Attrs: nounwind uwtable
define dso_local range(i32 0, 2) i32 @_Py_IsValidFD(i32 noundef %0) local_unnamed_addr #0 {
  %2 = icmp slt i32 %0, 0
  br i1 %2, label %7, label %3

3:                                                ; preds = %1
  %4 = tail call i32 (i32, i32, ...) @fcntl64(i32 noundef %0, i32 noundef 1) #17
  %5 = icmp sgt i32 %4, -1
  %6 = zext i1 %5 to i32
  br label %7

7:                                                ; preds = %1, %3
  %.0 = phi i32 [ %6, %3 ], [ 0, %1 ]
  ret i32 %.0
}